target datalayout = "e-m:e-p270:32:32-p271:32:32-p272:64:64-i64:64-i128:128-f80:128-n8:16:32:64-S128"
target triple = "x86_64-pc-linux-gnu"

%union.pthread_mutex_t = type { %struct.__pthread_mutex_s }
%struct.__pthread_mutex_s = type { i32, i32, i32, i32, i32, i16, i16, %struct.__pthread_internal_list }
%struct.__pthread_internal_list = type { ptr, ptr }
%struct.jobacctinfo = type { i32, i64, i32, i64, i32, i32, %struct.acct_gather_energy, double, double, i32, i32, i32, ptr, ptr, ptr, ptr, ptr, ptr, ptr, ptr, ptr, ptr, ptr, ptr, ptr, ptr, ptr, ptr, %struct.jobacct_id_t, i32, double, double, i64, i64 }
%struct.acct_gather_energy = type { i32, i64, i64, i32, i64, i64, i64 }
%struct.jobacct_id_t = type { i32, i32, ptr }

@.str.1 = private unnamed_addr constant [29 x i8] c"%s: pthread_mutex_lock(): %m\00", align 1
@plugin_inited = internal global i32 0, align 4
@.str.3 = private unnamed_addr constant [31 x i8] c"%s: pthread_mutex_unlock(): %m\00", align 1
@jobacct_shutdown_mutex = internal global %union.pthread_mutex_t zeroinitializer, align 8
@jobacct_shutdown = internal global i8 1, align 1
@task_list = internal global ptr null, align 8
@task_list_lock = internal global %union.pthread_mutex_t zeroinitializer, align 8
@.str.19 = private unnamed_addr constant [22 x i8] c"no task list created!\00", align 1
@__func__.jobacct_gather_stat_task = private unnamed_addr constant [25 x i8] c"jobacct_gather_stat_task\00", align 1
@__func__._jobacct_shutdown_test = private unnamed_addr constant [23 x i8] c"_jobacct_shutdown_test\00", align 1

; Function Attrs: nounwind uwtable
define internal zeroext i1 @_jobacct_shutdown_test() #0 {
  %1 = alloca i8, align 1
  %2 = alloca i32, align 4
  %3 = alloca i32, align 4
  call void @llvm.lifetime.start.p0(i64 1, ptr %1) #8
  br label %4

4:                                                ; preds = %0
  call void @llvm.lifetime.start.p0(i64 4, ptr %2) #8
  %5 = call i32 @pthread_mutex_lock(ptr noundef @jobacct_shutdown_mutex) #8
  store i32 %5, ptr %2, align 4
  %6 = load i32, ptr %2, align 4
  %7 = icmp ne i32 %6, 0
  br i1 %7, label %8, label %11

8:                                                ; preds = %4
  %9 = load i32, ptr %2, align 4
  %10 = call ptr @__errno_location() #9
  store i32 %9, ptr %10, align 4
  call void (ptr, ...) @fatal_abort(ptr noundef @.str.1, ptr noundef @__func__._jobacct_shutdown_test) #10
  unreachable

11:                                               ; preds = %4
  call void @llvm.lifetime.end.p0(i64 4, ptr %2) #8
  br label %12

12:                                               ; preds = %11
  br label %13

13:                                               ; preds = %12
  %14 = load i8, ptr @jobacct_shutdown, align 1, !range !8, !noundef !9
  %15 = trunc i8 %14 to i1
  %16 = zext i1 %15 to i8
  store i8 %16, ptr %1, align 1
  br label %17

17:                                               ; preds = %13
  call void @llvm.lifetime.start.p0(i64 4, ptr %3) #8
  %18 = call i32 @pthread_mutex_unlock(ptr noundef @jobacct_shutdown_mutex) #8
  store i32 %18, ptr %3, align 4
  %19 = load i32, ptr %3, align 4
  %20 = icmp ne i32 %19, 0
  br i1 %20, label %21, label %24

21:                                               ; preds = %17
  %22 = load i32, ptr %3, align 4
  %23 = call ptr @__errno_location() #9
  store i32 %22, ptr %23, align 4
  call void (ptr, ...) @fatal_abort(ptr noundef @.str.3, ptr noundef @__func__._jobacct_shutdown_test) #10
  unreachable

24:                                               ; preds = %17
  call void @llvm.lifetime.end.p0(i64 4, ptr %3) #8
  br label %25

25:                                               ; preds = %24
  br label %26

26:                                               ; preds = %25
  %27 = load i8, ptr %1, align 1, !range !8, !noundef !9
  %28 = trunc i8 %27 to i1
  call void @llvm.lifetime.end.p0(i64 1, ptr %1) #8
  ret i1 %28
}

; Function Attrs: nounwind uwtable
define dso_local ptr @jobacct_gather_stat_task(i32 noundef %0, i1 noundef zeroext %1) #0 {
  %3 = alloca ptr, align 8
  %4 = alloca i32, align 4
  %5 = alloca i8, align 1
  %6 = alloca ptr, align 8
  %7 = alloca ptr, align 8
  %8 = alloca ptr, align 8
  %9 = alloca i32, align 4
  %10 = alloca i32, align 4
  store i32 %0, ptr %4, align 4
  %11 = zext i1 %1 to i8
  store i8 %11, ptr %5, align 1
  %12 = load i32, ptr @plugin_inited, align 4
  %13 = icmp eq i32 %12, 1
  br i1 %13, label %16, label %14

14:                                               ; preds = %2
  %15 = call zeroext i1 @_jobacct_shutdown_test()
  br i1 %15, label %16, label %17

16:                                               ; preds = %14, %2
  store ptr null, ptr %3, align 8
  br label %74

17:                                               ; preds = %14
  %18 = load i8, ptr %5, align 1, !range !8, !noundef !9
  %19 = trunc i8 %18 to i1
  br i1 %19, label %20, label %21

20:                                               ; preds = %17
  call void @_poll_data(i1 noundef zeroext false)
  br label %21

21:                                               ; preds = %20, %17
  %22 = load i32, ptr %4, align 4
  %23 = icmp ne i32 %22, 0
  br i1 %23, label %24, label %73

24:                                               ; preds = %21
  call void @llvm.lifetime.start.p0(i64 8, ptr %6) #8
  store ptr null, ptr %6, align 8
  call void @llvm.lifetime.start.p0(i64 8, ptr %7) #8
  store ptr null, ptr %7, align 8
  call void @llvm.lifetime.start.p0(i64 8, ptr %8) #8
  store ptr null, ptr %8, align 8
  br label %25

25:                                               ; preds = %24
  call void @llvm.lifetime.start.p0(i64 4, ptr %9) #8
  %26 = call i32 @pthread_mutex_lock(ptr noundef @task_list_lock) #8
  store i32 %26, ptr %9, align 4
  %27 = load i32, ptr %9, align 4
  %28 = icmp ne i32 %27, 0
  br i1 %28, label %29, label %32

29:                                               ; preds = %25
  %30 = load i32, ptr %9, align 4
  %31 = call ptr @__errno_location() #9
  store i32 %30, ptr %31, align 4
  call void (ptr, ...) @fatal_abort(ptr noundef @.str.1, ptr noundef @__func__.jobacct_gather_stat_task) #10
  unreachable

32:                                               ; preds = %25
  call void @llvm.lifetime.end.p0(i64 4, ptr %9) #8
  br label %33

33:                                               ; preds = %32
  br label %34

34:                                               ; preds = %33
  %35 = load ptr, ptr @task_list, align 8
  %36 = icmp ne ptr %35, null
  br i1 %36, label %39, label %37

37:                                               ; preds = %34
  %38 = call i32 (ptr, ...) @error(ptr noundef @.str.19)
  br label %61

39:                                               ; preds = %34
  %40 = load ptr, ptr @task_list, align 8
  %41 = call ptr @list_iterator_create(ptr noundef %40)
  store ptr %41, ptr %8, align 8
  br label %42

42:                                               ; preds = %53, %39
  %43 = load ptr, ptr %8, align 8
  %44 = call ptr @list_next(ptr noundef %43)
  store ptr %44, ptr %6, align 8
  %45 = icmp ne ptr %44, null
  br i1 %45, label %46, label %54

46:                                               ; preds = %42
  %47 = load ptr, ptr %6, align 8
  %48 = getelementptr inbounds nuw %struct.jobacctinfo, ptr %47, i32 0, i32 0
  %49 = load i32, ptr %48, align 8
  %50 = load i32, ptr %4, align 4
  %51 = icmp eq i32 %49, %50
  br i1 %51, label %52, label %53

52:                                               ; preds = %46
  br label %54

53:                                               ; preds = %46
  br label %42, !llvm.loop !13

54:                                               ; preds = %52, %42
  %55 = load ptr, ptr %8, align 8
  call void @list_iterator_destroy(ptr noundef %55)
  %56 = load ptr, ptr %6, align 8
  %57 = icmp eq ptr %56, null
  br i1 %57, label %58, label %59

58:                                               ; preds = %54
  br label %61

59:                                               ; preds = %54
  %60 = load ptr, ptr %6, align 8
  call void @_copy_tres_usage(ptr noundef %7, ptr noundef %60)
  br label %61

61:                                               ; preds = %59, %58, %37
  br label %62

62:                                               ; preds = %61
  call void @llvm.lifetime.start.p0(i64 4, ptr %10) #8
  %63 = call i32 @pthread_mutex_unlock(ptr noundef @task_list_lock) #8
  store i32 %63, ptr %10, align 4
  %64 = load i32, ptr %10, align 4
  %65 = icmp ne i32 %64, 0
  br i1 %65, label %66, label %69

66:                                               ; preds = %62
  %67 = load i32, ptr %10, align 4
  %68 = call ptr @__errno_location() #9
  store i32 %67, ptr %68, align 4
  call void (ptr, ...) @fatal_abort(ptr noundef @.str.3, ptr noundef @__func__.jobacct_gather_stat_task) #10
  unreachable

69:                                               ; preds = %62
  call void @llvm.lifetime.end.p0(i64 4, ptr %10) #8
  br label %70

70:                                               ; preds = %69
  br label %71

71:                                               ; preds = %70
  %72 = load ptr, ptr %7, align 8
  store ptr %72, ptr %3, align 8
  call void @llvm.lifetime.end.p0(i64 8, ptr %8) #8
  call void @llvm.lifetime.end.p0(i64 8, ptr %7) #8
  call void @llvm.lifetime.end.p0(i64 8, ptr %6) #8
  br label %74

73:                                               ; preds = %21
  store ptr null, ptr %3, align 8
  br label %74

74:                                               ; preds = %73, %71, %16
  %75 = load ptr, ptr %3, align 8
  ret ptr %75
}