; Function Attrs: nounwind uwtable
define dso_local ptr @jobacct_gather_stat_task(i32 noundef %0, i1 noundef zeroext %1) local_unnamed_addr #0 {
  %3 = alloca ptr, align 8
  %4 = load i32, ptr @plugin_inited, align 4
  %5 = icmp eq i32 %4, 1
  br i1 %5, label %39, label %6

6:                                                ; preds = %2
  %7 = tail call i32 @pthread_mutex_lock(ptr noundef nonnull @jobacct_shutdown_mutex) #10
  %.not.i = icmp eq i32 %7, 0
  br i1 %.not.i, label %10, label %8

8:                                                ; preds = %6
  %9 = tail call ptr @__errno_location() #11
  store i32 %7, ptr %9, align 4
  tail call void (ptr, ...) @fatal_abort(ptr noundef nonnull @.str.1, ptr noundef nonnull @__func__._jobacct_shutdown_test) #12
  unreachable

10:                                               ; preds = %6
  %.b.i = load i1, ptr @jobacct_shutdown, align 1
  %11 = tail call i32 @pthread_mutex_unlock(ptr noundef nonnull @jobacct_shutdown_mutex) #10
  %.not6.i = icmp eq i32 %11, 0
  br i1 %.not6.i, label %_jobacct_shutdown_test.exit, label %12

12:                                               ; preds = %10
  %13 = tail call ptr @__errno_location() #11
  store i32 %11, ptr %13, align 4
  tail call void (ptr, ...) @fatal_abort(ptr noundef nonnull @.str.3, ptr noundef nonnull @__func__._jobacct_shutdown_test) #12
  unreachable

_jobacct_shutdown_test.exit:                      ; preds = %10
  br i1 %.b.i, label %14, label %39

14:                                               ; preds = %_jobacct_shutdown_test.exit
  br i1 %1, label %15, label %16

15:                                               ; preds = %14
  tail call fastcc void @_poll_data(i1 noundef zeroext false)
  br label %16

16:                                               ; preds = %15, %14
  %.not = icmp eq i32 %0, 0
  br i1 %.not, label %39, label %17

17:                                               ; preds = %16
  call void @llvm.lifetime.start.p0(i64 8, ptr nonnull %3) #10
  store ptr null, ptr %3, align 8
  %18 = tail call i32 @pthread_mutex_lock(ptr noundef nonnull @task_list_lock) #10
  %.not17 = icmp eq i32 %18, 0
  br i1 %.not17, label %21, label %19

19:                                               ; preds = %17
  %20 = tail call ptr @__errno_location() #11
  store i32 %18, ptr %20, align 4
  tail call void (ptr, ...) @fatal_abort(ptr noundef nonnull @.str.1, ptr noundef nonnull @__func__.jobacct_gather_stat_task) #12
  unreachable

21:                                               ; preds = %17
  %22 = load ptr, ptr @task_list, align 8
  %.not18 = icmp eq ptr %22, null
  br i1 %.not18, label %23, label %25

23:                                               ; preds = %21
  %24 = tail call i32 (ptr, ...) @error(ptr noundef nonnull @.str.19) #10
  br label %33

25:                                               ; preds = %21
  %26 = tail call ptr @list_iterator_create(ptr noundef nonnull %22) #10
  br label %27

27:                                               ; preds = %29, %25
  %28 = tail call ptr @list_next(ptr noundef %26) #10
  %.not19 = icmp eq ptr %28, null
  br i1 %.not19, label %.thread, label %29

.thread:                                          ; preds = %27
  tail call void @list_iterator_destroy(ptr noundef %26) #10
  br label %33

29:                                               ; preds = %27
  %30 = load i32, ptr %28, align 8
  %31 = icmp eq i32 %30, %0
  br i1 %31, label %32, label %27, !llvm.loop !11

32:                                               ; preds = %29
  tail call void @list_iterator_destroy(ptr noundef %26) #10
  call fastcc void @_copy_tres_usage(ptr noundef %3, ptr noundef nonnull %28)
  br label %33

33:                                               ; preds = %.thread, %23, %32
  %34 = tail call i32 @pthread_mutex_unlock(ptr noundef nonnull @task_list_lock) #10
  %.not20 = icmp eq i32 %34, 0
  br i1 %.not20, label %37, label %35

35:                                               ; preds = %33
  %36 = tail call ptr @__errno_location() #11
  store i32 %34, ptr %36, align 4
  tail call void (ptr, ...) @fatal_abort(ptr noundef nonnull @.str.3, ptr noundef nonnull @__func__.jobacct_gather_stat_task) #12
  unreachable

37:                                               ; preds = %33
  %38 = load ptr, ptr %3, align 8
  call void @llvm.lifetime.end.p0(i64 8, ptr nonnull %3) #10
  br label %39

39:                                               ; preds = %16, %2, %_jobacct_shutdown_test.exit, %37
  %.0 = phi ptr [ %38, %37 ], [ null, %_jobacct_shutdown_test.exit ], [ null, %2 ], [ null, %16 ]
  ret ptr %.0
}